; Function Attrs: mustprogress nounwind uwtable
define hidden void @_ZN6google8protobuf2io16FileOutputStreamD0Ev(ptr noundef nonnull align 8 dereferenceable(72) initializes((0, 8)) %0) unnamed_addr #5 align 2 personality ptr @__gxx_personality_v0 {
  store ptr getelementptr inbounds nuw inrange(-16, 56) (i8, ptr @_ZTVN6google8protobuf2io16FileOutputStreamE, i64 16), ptr %0, align 8, !tbaa !3
  %2 = invoke noundef zeroext i1 @_ZN6google8protobuf2io26CopyingOutputStreamAdaptor5FlushEv(ptr noundef nonnull align 8 dereferenceable(72) %0)
          to label %_ZN6google8protobuf2io16FileOutputStreamD2Ev.exit unwind label %3

3:                                                ; preds = %1
  %4 = landingpad { ptr, i32 }
          catch ptr null
  %5 = extractvalue { ptr, i32 } %4, 0
  tail call void @__clang_call_terminate(ptr %5) #17
  unreachable

_ZN6google8protobuf2io16FileOutputStreamD2Ev.exit: ; preds = %1
  %6 = getelementptr inbounds nuw i8, ptr %0, i64 48
  tail call void @_ZN6google8protobuf2io16FileOutputStream23CopyingFileOutputStreamD2Ev(ptr noundef nonnull align 8 dereferenceable(20) %6) #15
  tail call void @_ZN6google8protobuf2io26CopyingOutputStreamAdaptorD2Ev(ptr noundef nonnull align 8 dereferenceable(72) %0) #15
  tail call void @_ZdlPv(ptr noundef nonnull %0) #18
  ret void
}